target datalayout = "e-m:e-p270:32:32-p271:32:32-p272:64:64-i64:64-i128:128-f80:128-n8:16:32:64-S128"
target triple = "x86_64-pc-linux-gnu"

%union.SourceSpan = type { i64 }
%struct.Expr_ = type { ptr, %union.SourceSpan, i16, %union.anon.61 }
%union.anon.61 = type { %struct.ExprAnySwitch }
%struct.ExprAnySwitch = type { i8, %union.anon.63 }
%union.anon.63 = type { %struct.anon.64 }
%struct.anon.64 = type { ptr, %union.SourceSpan, ptr }
%struct.Decl_ = type { ptr, ptr, %union.SourceSpan, i64, %union.anon, i32, %union.anon.0, i64, ptr, ptr, ptr, %union.anon.1 }
%union.anon = type { ptr }
%union.anon.0 = type { i16 }
%union.anon.1 = type { %struct.FuncDecl }
%struct.FuncDecl = type { i32, [4 x i8], %struct.Signature_, i32, i32, %union.anon.8 }
%struct.Signature_ = type <{ %struct.CalleeAttributes, i16, i8, i32, i32, [4 x i8], ptr }>
%struct.CalleeAttributes = type { i8 }
%union.anon.8 = type { %struct.anon.9 }
%struct.anon.9 = type { i16, %union.anon.10 }
%union.anon.10 = type { ptr }
%struct.ExprIdentifierRaw = type { ptr, i8, ptr }

@.str.33 = private unnamed_addr constant [36 x i8] c"FATAL ERROR %s -> in %s @ in %s:%d \00", align 1
@.str.34 = private unnamed_addr constant [22 x i8] c"Should be unreachable\00", align 1
@.str.35 = private unnamed_addr constant [110 x i8] c"generated/home/dtcxzyw/WorkSpace/Projects/compilers/llvm-opt-benchmark/bench/c3c/c3c/src/compiler/sema_expr.c\00", align 1
@.str.37 = private unnamed_addr constant [35 x i8] c"Recursive resolution of expression\00", align 1
@.str.203 = private unnamed_addr constant [62 x i8] c"The compile time variable '%s' was not defined in this scope.\00", align 1
@__func__.sema_expr_begin_analyse = private unnamed_addr constant [24 x i8] c"sema_expr_begin_analyse\00", align 1

; Function Attrs: nounwind uwtable
define internal zeroext i1 @sema_expr_begin_analyse(ptr noundef %0) #0 {
  %2 = alloca ptr, align 8
  %3 = alloca i1, align 1
  %4 = alloca ptr, align 8
  store ptr %0, ptr %4, align 8
  %5 = load ptr, ptr %4, align 8
  %6 = getelementptr inbounds %struct.Expr_, ptr %5, i32 0, i32 2
  %7 = load i16, ptr %6, align 8
  %8 = lshr i16 %7, 8
  %9 = and i16 %8, 15
  %10 = zext i16 %9 to i32
  switch i32 %10, label %33 [
    i32 0, label %11
    i32 1, label %17
    i32 2, label %32
  ]

11:                                               ; preds = %1
  %12 = load ptr, ptr %4, align 8
  %13 = getelementptr inbounds %struct.Expr_, ptr %12, i32 0, i32 2
  %14 = load i16, ptr %13, align 8
  %15 = and i16 %14, -3841
  %16 = or i16 %15, 256
  store i16 %16, ptr %13, align 8
  store i1 true, ptr %3, align 1
  br label %35

17:                                               ; preds = %1
  %18 = load ptr, ptr %4, align 8
  %19 = getelementptr inbounds %struct.Expr_, ptr %18, i32 0, i32 1
  %20 = getelementptr inbounds %union.SourceSpan, ptr %19, i32 0, i32 0
  %21 = load i64, ptr %20, align 8
  call void (i64, ptr, ...) @sema_error_at(i64 %21, ptr noundef @.str.37)
  %22 = load ptr, ptr %4, align 8
  store ptr %22, ptr %2, align 8
  %23 = load ptr, ptr %2, align 8
  %24 = getelementptr inbounds %struct.Expr_, ptr %23, i32 0, i32 2
  %25 = load i16, ptr %24, align 8
  %26 = and i16 %25, -256
  store i16 %26, ptr %24, align 8
  %27 = load ptr, ptr %2, align 8
  %28 = getelementptr inbounds %struct.Expr_, ptr %27, i32 0, i32 2
  %29 = load i16, ptr %28, align 8
  %30 = and i16 %29, -3841
  %31 = or i16 %30, 512
  store i16 %31, ptr %28, align 8
  store i1 false, ptr %3, align 1
  br label %35

32:                                               ; preds = %1
  store i1 false, ptr %3, align 1
  br label %35

33:                                               ; preds = %1
  br label %34

34:                                               ; preds = %33
  call void (ptr, ...) @error_exit(ptr noundef @.str.33, ptr noundef @.str.34, ptr noundef @__func__.sema_expr_begin_analyse, ptr noundef @.str.35, i32 noundef 4677) #6
  unreachable

35:                                               ; preds = %32, %17, %11
  %36 = load i1, ptr %3, align 1
  ret i1 %36
}

; Function Attrs: nounwind uwtable
define internal zeroext i1 @sema_binary_analyse_ct_identifier_lvalue(ptr noundef %0, ptr noundef %1) #0 {
  %3 = alloca ptr, align 8
  %4 = alloca ptr, align 8
  %5 = alloca i1, align 1
  %6 = alloca ptr, align 8
  %7 = alloca ptr, align 8
  %8 = alloca ptr, align 8
  %9 = alloca ptr, align 8
  %10 = alloca ptr, align 8
  store ptr %0, ptr %6, align 8
  store ptr %1, ptr %7, align 8
  %11 = load ptr, ptr %7, align 8
  %12 = call zeroext i1 @sema_expr_begin_analyse(ptr noundef %11)
  br i1 %12, label %26, label %13

13:                                               ; preds = %2
  %14 = load ptr, ptr %7, align 8
  store ptr %14, ptr %3, align 8
  %15 = load ptr, ptr %3, align 8
  %16 = icmp eq ptr %15, null
  br i1 %16, label %24, label %17

17:                                               ; preds = %13
  %18 = load ptr, ptr %3, align 8
  %19 = getelementptr inbounds %struct.Expr_, ptr %18, i32 0, i32 2
  %20 = load i16, ptr %19, align 8
  %21 = and i16 %20, 255
  %22 = zext i16 %21 to i32
  %23 = icmp ne i32 %22, 0
  br label %24

24:                                               ; preds = %17, %13
  %25 = phi i1 [ true, %13 ], [ %23, %17 ]
  store i1 %25, ptr %5, align 1
  br label %71

26:                                               ; preds = %2
  store ptr null, ptr %8, align 8
  store ptr null, ptr %9, align 8
  br label %27

27:                                               ; preds = %26
  br label %28

28:                                               ; preds = %27
  %29 = load ptr, ptr %6, align 8
  %30 = load ptr, ptr %7, align 8
  %31 = getelementptr inbounds %struct.Expr_, ptr %30, i32 0, i32 3
  %32 = getelementptr inbounds %struct.ExprIdentifierRaw, ptr %31, i32 0, i32 0
  %33 = load ptr, ptr %32, align 8
  %34 = call ptr @sema_find_symbol(ptr noundef %29, ptr noundef %33)
  store ptr %34, ptr %10, align 8
  %35 = load ptr, ptr %10, align 8
  %36 = icmp ne ptr %35, null
  br i1 %36, label %56, label %37

37:                                               ; preds = %28
  %38 = load ptr, ptr %7, align 8
  %39 = getelementptr inbounds %struct.Expr_, ptr %38, i32 0, i32 1
  %40 = load ptr, ptr %7, align 8
  %41 = getelementptr inbounds %struct.Expr_, ptr %40, i32 0, i32 3
  %42 = getelementptr inbounds %struct.ExprIdentifierRaw, ptr %41, i32 0, i32 0
  %43 = load ptr, ptr %42, align 8
  %44 = getelementptr inbounds %union.SourceSpan, ptr %39, i32 0, i32 0
  %45 = load i64, ptr %44, align 8
  call void (i64, ptr, ...) @sema_error_at(i64 %45, ptr noundef @.str.203, ptr noundef %43)
  %46 = load ptr, ptr %7, align 8
  store ptr %46, ptr %4, align 8
  %47 = load ptr, ptr %4, align 8
  %48 = getelementptr inbounds %struct.Expr_, ptr %47, i32 0, i32 2
  %49 = load i16, ptr %48, align 8
  %50 = and i16 %49, -256
  store i16 %50, ptr %48, align 8
  %51 = load ptr, ptr %4, align 8
  %52 = getelementptr inbounds %struct.Expr_, ptr %51, i32 0, i32 2
  %53 = load i16, ptr %52, align 8
  %54 = and i16 %53, -3841
  %55 = or i16 %54, 512
  store i16 %55, ptr %52, align 8
  store i1 false, ptr %5, align 1
  br label %71

56:                                               ; preds = %28
  %57 = load ptr, ptr %10, align 8
  %58 = getelementptr inbounds %struct.Decl_, ptr %57, i32 0, i32 11
  %59 = load i32, ptr %58, align 8
  %60 = and i32 %59, -4097
  %61 = or i32 %60, 4096
  store i32 %61, ptr %58, align 8
  %62 = load ptr, ptr %10, align 8
  %63 = load ptr, ptr %7, align 8
  %64 = getelementptr inbounds %struct.Expr_, ptr %63, i32 0, i32 3
  %65 = getelementptr inbounds %struct.ExprIdentifierRaw, ptr %64, i32 0, i32 2
  store ptr %62, ptr %65, align 8
  %66 = load ptr, ptr %7, align 8
  %67 = getelementptr inbounds %struct.Expr_, ptr %66, i32 0, i32 2
  %68 = load i16, ptr %67, align 8
  %69 = and i16 %68, -3841
  %70 = or i16 %69, 512
  store i16 %70, ptr %67, align 8
  store i1 true, ptr %5, align 1
  br label %71

71:                                               ; preds = %56, %37, %24
  %72 = load i1, ptr %5, align 1
  ret i1 %72
}