; Function Attrs: nounwind uwtable
define internal fastcc zeroext i1 @sema_binary_analyse_ct_identifier_lvalue(ptr noundef %0, ptr nocapture noundef %1) unnamed_addr #0 {
  %3 = getelementptr inbounds i8, ptr %1, i64 16
  %4 = load i16, ptr %3, align 8
  %5 = lshr i16 %4, 8
  %6 = and i16 %5, 15
  switch i16 %6, label %7 [
    i16 0, label %16
    i16 1, label %sema_expr_begin_analyse.exit
    i16 2, label %sema_expr_begin_analyse.exit.thread
  ]

7:                                                ; preds = %2
  tail call void (ptr, ...) @error_exit(ptr noundef nonnull @.str.33, ptr noundef nonnull @.str.34, ptr noundef nonnull @__func__.sema_expr_begin_analyse, ptr noundef nonnull @.str.35, i32 noundef 4677) #14
  unreachable

sema_expr_begin_analyse.exit:                     ; preds = %2
  %8 = getelementptr inbounds i8, ptr %1, i64 8
  %9 = load i64, ptr %8, align 8
  tail call void (i64, ptr, ...) @sema_error_at(i64 %9, ptr noundef nonnull @.str.37) #13
  %10 = load i16, ptr %3, align 8
  %11 = and i16 %10, -4096
  %12 = or disjoint i16 %11, 512
  store i16 %12, ptr %3, align 8
  br label %sema_expr_begin_analyse.exit.thread

sema_expr_begin_analyse.exit.thread:              ; preds = %2, %sema_expr_begin_analyse.exit
  %13 = phi i16 [ %4, %2 ], [ %12, %sema_expr_begin_analyse.exit ]
  %14 = and i16 %13, 255
  %15 = icmp ne i16 %14, 0
  br label %37

16:                                               ; preds = %2
  %17 = and i16 %4, -3841
  %18 = or disjoint i16 %17, 256
  store i16 %18, ptr %3, align 8
  %19 = getelementptr inbounds i8, ptr %1, i64 24
  %20 = load ptr, ptr %19, align 8
  %21 = tail call ptr @sema_find_symbol(ptr noundef %0, ptr noundef %20) #13
  %.not = icmp eq ptr %21, null
  br i1 %.not, label %22, label %29

22:                                               ; preds = %16
  %23 = getelementptr inbounds i8, ptr %1, i64 8
  %24 = load ptr, ptr %19, align 8
  %25 = load i64, ptr %23, align 8
  tail call void (i64, ptr, ...) @sema_error_at(i64 %25, ptr noundef nonnull @.str.203, ptr noundef %24) #13
  %26 = load i16, ptr %3, align 8
  %27 = and i16 %26, -4096
  %28 = or disjoint i16 %27, 512
  store i16 %28, ptr %3, align 8
  br label %37

29:                                               ; preds = %16
  %30 = getelementptr inbounds i8, ptr %21, i64 80
  %31 = load i32, ptr %30, align 8
  %32 = or i32 %31, 4096
  store i32 %32, ptr %30, align 8
  %33 = getelementptr inbounds i8, ptr %1, i64 40
  store ptr %21, ptr %33, align 8
  %34 = load i16, ptr %3, align 8
  %35 = and i16 %34, -3841
  %36 = or disjoint i16 %35, 512
  store i16 %36, ptr %3, align 8
  br label %37

37:                                               ; preds = %sema_expr_begin_analyse.exit.thread, %29, %22
  %.0 = phi i1 [ true, %29 ], [ false, %22 ], [ %15, %sema_expr_begin_analyse.exit.thread ]
  ret i1 %.0
}